target datalayout = "e-m:e-p270:32:32-p271:32:32-p272:64:64-i64:64-i128:128-f80:128-n8:16:32:64-S128"
target triple = "x86_64-pc-linux-gnu"

%struct.FFIOContext = type { %struct.AVIOContext, ptr, i32, i32, i64, i64, i64, i64, i32, i32, i32, i64 }
%struct.AVIOContext = type { ptr, ptr, i32, ptr, ptr, ptr, ptr, ptr, ptr, i64, i32, i32, i32, i32, i32, i64, ptr, ptr, ptr, ptr, i32, i32, ptr, ptr, ptr, i32, ptr, i64, i64 }
%struct.Mp4Descr = type { i32, i32, ptr, %struct.SLConfigDescr }
%struct.SLConfigDescr = type { i32, i32, i32, i32, i32, i32, i32, i32, i32, i32, i32, i32, i32, i32 }
%struct.MP4DescrParseContext = type { ptr, %struct.FFIOContext, ptr, ptr, i32, i32, i32, i32 }

; Function Attrs: nounwind uwtable
define internal i32 @parse_MP4DecConfigDescrTag(ptr noundef %0, i64 noundef %1, i32 noundef %2) #0 {
  %4 = alloca i32, align 4
  %5 = alloca ptr, align 8
  %6 = alloca i64, align 8
  %7 = alloca i32, align 4
  %8 = alloca ptr, align 8
  %9 = alloca i32, align 4
  store ptr %0, ptr %5, align 8, !tbaa !218
  store i64 %1, ptr %6, align 8, !tbaa !90
  store i32 %2, ptr %7, align 4, !tbaa !11
  call void @llvm.lifetime.start.p0(i64 8, ptr %8) #12
  %10 = load ptr, ptr %5, align 8, !tbaa !218
  %11 = getelementptr inbounds nuw %struct.MP4DescrParseContext, ptr %10, i32 0, i32 3
  %12 = load ptr, ptr %11, align 8, !tbaa !223
  store ptr %12, ptr %8, align 8, !tbaa !18
  %13 = load ptr, ptr %8, align 8, !tbaa !18
  %14 = icmp ne ptr %13, null
  br i1 %14, label %16, label %15

15:                                               ; preds = %3
  store i32 -1094995529, ptr %4, align 4
  store i32 1, ptr %9, align 4
  br label %41

16:                                               ; preds = %3
  %17 = load i32, ptr %7, align 4, !tbaa !11
  %18 = sext i32 %17 to i64
  %19 = call noalias ptr @av_malloc(i64 noundef %18)
  %20 = load ptr, ptr %5, align 8, !tbaa !218
  %21 = getelementptr inbounds nuw %struct.MP4DescrParseContext, ptr %20, i32 0, i32 3
  %22 = load ptr, ptr %21, align 8, !tbaa !223
  %23 = getelementptr inbounds nuw %struct.Mp4Descr, ptr %22, i32 0, i32 2
  store ptr %19, ptr %23, align 8, !tbaa !58
  %24 = load ptr, ptr %8, align 8, !tbaa !18
  %25 = getelementptr inbounds nuw %struct.Mp4Descr, ptr %24, i32 0, i32 2
  %26 = load ptr, ptr %25, align 8, !tbaa !58
  %27 = icmp ne ptr %26, null
  br i1 %27, label %29, label %28

28:                                               ; preds = %16
  store i32 -12, ptr %4, align 4
  store i32 1, ptr %9, align 4
  br label %41

29:                                               ; preds = %16
  %30 = load i32, ptr %7, align 4, !tbaa !11
  %31 = load ptr, ptr %8, align 8, !tbaa !18
  %32 = getelementptr inbounds nuw %struct.Mp4Descr, ptr %31, i32 0, i32 1
  store i32 %30, ptr %32, align 4, !tbaa !54
  %33 = load ptr, ptr %5, align 8, !tbaa !218
  %34 = getelementptr inbounds nuw %struct.MP4DescrParseContext, ptr %33, i32 0, i32 1
  %35 = getelementptr inbounds nuw %struct.FFIOContext, ptr %34, i32 0, i32 0
  %36 = load ptr, ptr %8, align 8, !tbaa !18
  %37 = getelementptr inbounds nuw %struct.Mp4Descr, ptr %36, i32 0, i32 2
  %38 = load ptr, ptr %37, align 8, !tbaa !58
  %39 = load i32, ptr %7, align 4, !tbaa !11
  %40 = call i32 @avio_read(ptr noundef %35, ptr noundef %38, i32 noundef %39)
  store i32 0, ptr %4, align 4
  store i32 1, ptr %9, align 4
  br label %41

41:                                               ; preds = %29, %28, %15
  call void @llvm.lifetime.end.p0(i64 8, ptr %8) #12
  %42 = load i32, ptr %4, align 4
  ret i32 %42
}