; Function Attrs: nounwind uwtable
define internal fastcc range(i32 -1094995529, 1) i32 @parse_MP4DecConfigDescrTag(ptr noundef nonnull %0, i32 noundef range(i32 1, -2147483648) %1) unnamed_addr #0 {
  %3 = getelementptr inbounds nuw i8, ptr %0, i64 296
  %4 = load ptr, ptr %3, align 8, !tbaa !101
  %.not = icmp eq ptr %4, null
  br i1 %.not, label %16, label %5

5:                                                ; preds = %2
  %6 = zext nneg i32 %1 to i64
  %7 = tail call noalias ptr @av_malloc(i64 noundef %6) #12
  %8 = load ptr, ptr %3, align 8, !tbaa !101
  %9 = getelementptr inbounds nuw i8, ptr %8, i64 8
  store ptr %7, ptr %9, align 8, !tbaa !54
  %10 = getelementptr inbounds nuw i8, ptr %4, i64 8
  %11 = load ptr, ptr %10, align 8, !tbaa !54
  %.not11 = icmp eq ptr %11, null
  br i1 %.not11, label %16, label %12

12:                                               ; preds = %5
  %13 = getelementptr inbounds nuw i8, ptr %4, i64 4
  store i32 %1, ptr %13, align 4, !tbaa !50
  %14 = getelementptr inbounds nuw i8, ptr %0, i64 8
  %15 = tail call i32 @avio_read(ptr noundef nonnull %14, ptr noundef nonnull %11, i32 noundef %1) #12
  br label %16

16:                                               ; preds = %5, %2, %12
  %.0 = phi i32 [ 0, %12 ], [ -1094995529, %2 ], [ -12, %5 ]
  ret i32 %.0
}